target datalayout = "e-m:e-p270:32:32-p271:32:32-p272:64:64-i64:64-i128:128-f80:128-n8:16:32:64-S128"
target triple = "x86_64-pc-linux-gnu"

%struct.code = type { i8, i8, i16 }
%struct.z_stream_s = type { ptr, i32, i64, ptr, i32, i64, ptr, ptr, ptr, ptr, ptr, i32, i64, i64 }
%struct.inflate_state = type { ptr, i32, i32, i32, i32, i32, i32, i64, i64, ptr, i32, i32, i32, i32, ptr, i64, i32, i32, i32, i32, ptr, ptr, i32, i32, i32, i32, i32, i32, ptr, [320 x i16], [288 x i16], [1444 x %struct.code], i32, i32, i32 }

; Function Attrs: nounwind uwtable
define internal i32 @inflateStateCheck(ptr noundef %0) #0 {
  %2 = alloca i32, align 4
  %3 = alloca ptr, align 8
  %4 = alloca ptr, align 8
  %5 = alloca i32, align 4
  store ptr %0, ptr %3, align 8, !tbaa !3
  call void @llvm.lifetime.start.p0(i64 8, ptr %4) #4
  %6 = load ptr, ptr %3, align 8, !tbaa !3
  %7 = icmp eq ptr %6, null
  br i1 %7, label %18, label %8

8:                                                ; preds = %1
  %9 = load ptr, ptr %3, align 8, !tbaa !3
  %10 = getelementptr inbounds nuw %struct.z_stream_s, ptr %9, i32 0, i32 8
  %11 = load ptr, ptr %10, align 8, !tbaa !37
  %12 = icmp eq ptr %11, null
  br i1 %12, label %18, label %13

13:                                               ; preds = %8
  %14 = load ptr, ptr %3, align 8, !tbaa !3
  %15 = getelementptr inbounds nuw %struct.z_stream_s, ptr %14, i32 0, i32 9
  %16 = load ptr, ptr %15, align 8, !tbaa !38
  %17 = icmp eq ptr %16, null
  br i1 %17, label %18, label %19

18:                                               ; preds = %13, %8, %1
  store i32 1, ptr %2, align 4
  store i32 1, ptr %5, align 4
  br label %43

19:                                               ; preds = %13
  %20 = load ptr, ptr %3, align 8, !tbaa !3
  %21 = getelementptr inbounds nuw %struct.z_stream_s, ptr %20, i32 0, i32 7
  %22 = load ptr, ptr %21, align 8, !tbaa !8
  store ptr %22, ptr %4, align 8, !tbaa !14
  %23 = load ptr, ptr %4, align 8, !tbaa !14
  %24 = icmp eq ptr %23, null
  br i1 %24, label %41, label %25

25:                                               ; preds = %19
  %26 = load ptr, ptr %4, align 8, !tbaa !14
  %27 = getelementptr inbounds nuw %struct.inflate_state, ptr %26, i32 0, i32 0
  %28 = load ptr, ptr %27, align 8, !tbaa !39
  %29 = load ptr, ptr %3, align 8, !tbaa !3
  %30 = icmp ne ptr %28, %29
  br i1 %30, label %41, label %31

31:                                               ; preds = %25
  %32 = load ptr, ptr %4, align 8, !tbaa !14
  %33 = getelementptr inbounds nuw %struct.inflate_state, ptr %32, i32 0, i32 1
  %34 = load i32, ptr %33, align 8, !tbaa !24
  %35 = icmp ult i32 %34, 16180
  br i1 %35, label %41, label %36

36:                                               ; preds = %31
  %37 = load ptr, ptr %4, align 8, !tbaa !14
  %38 = getelementptr inbounds nuw %struct.inflate_state, ptr %37, i32 0, i32 1
  %39 = load i32, ptr %38, align 8, !tbaa !24
  %40 = icmp ugt i32 %39, 16211
  br i1 %40, label %41, label %42

41:                                               ; preds = %36, %31, %25, %19
  store i32 1, ptr %2, align 4
  store i32 1, ptr %5, align 4
  br label %43

42:                                               ; preds = %36
  store i32 0, ptr %2, align 4
  store i32 1, ptr %5, align 4
  br label %43

43:                                               ; preds = %42, %41, %18
  call void @llvm.lifetime.end.p0(i64 8, ptr %4) #4
  %44 = load i32, ptr %2, align 4
  ret i32 %44
}

; Function Attrs: nounwind uwtable
define i64 @inflateCodesUsed(ptr noundef %0) #0 {
  %2 = alloca i64, align 8
  %3 = alloca ptr, align 8
  %4 = alloca ptr, align 8
  %5 = alloca i32, align 4
  store ptr %0, ptr %3, align 8, !tbaa !3
  call void @llvm.lifetime.start.p0(i64 8, ptr %4) #4
  %6 = load ptr, ptr %3, align 8, !tbaa !3
  %7 = call i32 @inflateStateCheck(ptr noundef %6)
  %8 = icmp ne i32 %7, 0
  br i1 %8, label %9, label %10

9:                                                ; preds = %1
  store i64 -1, ptr %2, align 8
  store i32 1, ptr %5, align 4
  br label %24

10:                                               ; preds = %1
  %11 = load ptr, ptr %3, align 8, !tbaa !3
  %12 = getelementptr inbounds nuw %struct.z_stream_s, ptr %11, i32 0, i32 7
  %13 = load ptr, ptr %12, align 8, !tbaa !8
  store ptr %13, ptr %4, align 8, !tbaa !14
  %14 = load ptr, ptr %4, align 8, !tbaa !14
  %15 = getelementptr inbounds nuw %struct.inflate_state, ptr %14, i32 0, i32 28
  %16 = load ptr, ptr %15, align 8, !tbaa !32
  %17 = load ptr, ptr %4, align 8, !tbaa !14
  %18 = getelementptr inbounds nuw %struct.inflate_state, ptr %17, i32 0, i32 31
  %19 = getelementptr inbounds [1444 x %struct.code], ptr %18, i64 0, i64 0
  %20 = ptrtoint ptr %16 to i64
  %21 = ptrtoint ptr %19 to i64
  %22 = sub i64 %20, %21
  %23 = sdiv exact i64 %22, 4
  store i64 %23, ptr %2, align 8
  store i32 1, ptr %5, align 4
  br label %24

24:                                               ; preds = %10, %9
  call void @llvm.lifetime.end.p0(i64 8, ptr %4) #4
  %25 = load i64, ptr %2, align 8
  ret i64 %25
}